; ModuleID = '46/1135.c'
source_filename = "46/1135.c"
target datalayout = "e-m:e-p270:32:32-p271:32:32-p272:64:64-i64:64-f80:128-n8:16:32:64-S128"
target triple = "x86_64-pc-linux-gnu"

@.str = private unnamed_addr constant [5 x i8] c"%d%d\00", align 1
@.str.1 = private unnamed_addr constant [3 x i8] c"%d\00", align 1
@.str.2 = private unnamed_addr constant [4 x i8] c"%d\0A\00", align 1

; Function Attrs: noinline nounwind uwtable
define dso_local i32 @main() #0 {
  %1 = alloca i32, align 4
  %2 = alloca [100 x [100 x i32]], align 16
  %3 = alloca i32, align 4
  %4 = alloca i32, align 4
  %5 = alloca i32, align 4
  %6 = alloca i32, align 4
  %7 = alloca i32, align 4
  %8 = alloca i32, align 4
  %9 = alloca i32, align 4
  %10 = alloca i32, align 4
  store i32 0, i32* %1, align 4
  %11 = call i32 (i8*, ...) @__isoc99_scanf(i8* getelementptr inbounds ([5 x i8], [5 x i8]* @.str, i64 0, i64 0), i32* %3, i32* %4)
  store i32 0, i32* %7, align 4
  %12 = load i32, i32* %3, align 4
  %13 = sub nsw i32 %12, 1
  store i32 %13, i32* %8, align 4
  store i32 0, i32* %9, align 4
  %14 = load i32, i32* %4, align 4
  %15 = sub nsw i32 %14, 1
  store i32 %15, i32* %10, align 4
  store i32 0, i32* %5, align 4
  br label %16

16:                                               ; preds = %37, %0
  %17 = load i32, i32* %5, align 4
  %18 = load i32, i32* %3, align 4
  %19 = icmp slt i32 %17, %18
  br i1 %19, label %20, label %40

20:                                               ; preds = %16
  store i32 0, i32* %6, align 4
  br label %21

21:                                               ; preds = %33, %20
  %22 = load i32, i32* %6, align 4
  %23 = load i32, i32* %4, align 4
  %24 = icmp slt i32 %22, %23
  br i1 %24, label %25, label %36

25:                                               ; preds = %21
  %26 = load i32, i32* %5, align 4
  %27 = sext i32 %26 to i64
  %28 = getelementptr inbounds [100 x [100 x i32]], [100 x [100 x i32]]* %2, i64 0, i64 %27
  %29 = load i32, i32* %6, align 4
  %30 = sext i32 %29 to i64
  %31 = getelementptr inbounds [100 x i32], [100 x i32]* %28, i64 0, i64 %30
  %32 = call i32 (i8*, ...) @__isoc99_scanf(i8* getelementptr inbounds ([3 x i8], [3 x i8]* @.str.1, i64 0, i64 0), i32* %31)
  br label %33

33:                                               ; preds = %25
  %34 = load i32, i32* %6, align 4
  %35 = add nsw i32 %34, 1
  store i32 %35, i32* %6, align 4
  br label %21

36:                                               ; preds = %21
  br label %37

37:                                               ; preds = %36
  %38 = load i32, i32* %5, align 4
  %39 = add nsw i32 %38, 1
  store i32 %39, i32* %5, align 4
  br label %16

40:                                               ; preds = %16
  br label %41

41:                                               ; preds = %158, %40
  %42 = load i32, i32* %7, align 4
  store i32 %42, i32* %5, align 4
  %43 = load i32, i32* %9, align 4
  store i32 %43, i32* %6, align 4
  br label %44

44:                                               ; preds = %63, %41
  %45 = load i32, i32* %6, align 4
  %46 = load i32, i32* %10, align 4
  %47 = icmp sle i32 %45, %46
  br i1 %47, label %48, label %52

48:                                               ; preds = %44
  %49 = load i32, i32* %7, align 4
  %50 = load i32, i32* %8, align 4
  %51 = icmp sle i32 %49, %50
  br label %52

52:                                               ; preds = %48, %44
  %53 = phi i1 [ false, %44 ], [ %51, %48 ]
  br i1 %53, label %54, label %66

54:                                               ; preds = %52
  %55 = load i32, i32* %5, align 4
  %56 = sext i32 %55 to i64
  %57 = getelementptr inbounds [100 x [100 x i32]], [100 x [100 x i32]]* %2, i64 0, i64 %56
  %58 = load i32, i32* %6, align 4
  %59 = sext i32 %58 to i64
  %60 = getelementptr inbounds [100 x i32], [100 x i32]* %57, i64 0, i64 %59
  %61 = load i32, i32* %60, align 4
  %62 = call i32 (i8*, ...) @printf(i8* getelementptr inbounds ([4 x i8], [4 x i8]* @.str.2, i64 0, i64 0), i32 %61)
  br label %63

63:                                               ; preds = %54
  %64 = load i32, i32* %6, align 4
  %65 = add nsw i32 %64, 1
  store i32 %65, i32* %6, align 4
  br label %44

66:                                               ; preds = %52
  %67 = load i32, i32* %7, align 4
  %68 = add nsw i32 %67, 1
  store i32 %68, i32* %7, align 4
  %69 = load i32, i32* %10, align 4
  store i32 %69, i32* %6, align 4
  %70 = load i32, i32* %7, align 4
  store i32 %70, i32* %5, align 4
  br label %71

71:                                               ; preds = %90, %66
  %72 = load i32, i32* %5, align 4
  %73 = load i32, i32* %8, align 4
  %74 = icmp sle i32 %72, %73
  br i1 %74, label %75, label %79

75:                                               ; preds = %71
  %76 = load i32, i32* %9, align 4
  %77 = load i32, i32* %10, align 4
  %78 = icmp sle i32 %76, %77
  br label %79

79:                                               ; preds = %75, %71
  %80 = phi i1 [ false, %71 ], [ %78, %75 ]
  br i1 %80, label %81, label %93

81:                                               ; preds = %79
  %82 = load i32, i32* %5, align 4
  %83 = sext i32 %82 to i64
  %84 = getelementptr inbounds [100 x [100 x i32]], [100 x [100 x i32]]* %2, i64 0, i64 %83
  %85 = load i32, i32* %6, align 4
  %86 = sext i32 %85 to i64
  %87 = getelementptr inbounds [100 x i32], [100 x i32]* %84, i64 0, i64 %86
  %88 = load i32, i32* %87, align 4
  %89 = call i32 (i8*, ...) @printf(i8* getelementptr inbounds ([4 x i8], [4 x i8]* @.str.2, i64 0, i64 0), i32 %88)
  br label %90

90:                                               ; preds = %81
  %91 = load i32, i32* %5, align 4
  %92 = add nsw i32 %91, 1
  store i32 %92, i32* %5, align 4
  br label %71

93:                                               ; preds = %79
  %94 = load i32, i32* %10, align 4
  %95 = sub nsw i32 %94, 1
  store i32 %95, i32* %10, align 4
  %96 = load i32, i32* %8, align 4
  store i32 %96, i32* %5, align 4
  %97 = load i32, i32* %10, align 4
  store i32 %97, i32* %6, align 4
  br label %98

98:                                               ; preds = %117, %93
  %99 = load i32, i32* %6, align 4
  %100 = load i32, i32* %9, align 4
  %101 = icmp sge i32 %99, %100
  br i1 %101, label %102, label %106

102:                                              ; preds = %98
  %103 = load i32, i32* %7, align 4
  %104 = load i32, i32* %8, align 4
  %105 = icmp sle i32 %103, %104
  br label %106

106:                                              ; preds = %102, %98
  %107 = phi i1 [ false, %98 ], [ %105, %102 ]
  br i1 %107, label %108, label %120

108:                                              ; preds = %106
  %109 = load i32, i32* %5, align 4
  %110 = sext i32 %109 to i64
  %111 = getelementptr inbounds [100 x [100 x i32]], [100 x [100 x i32]]* %2, i64 0, i64 %110
  %112 = load i32, i32* %6, align 4
  %113 = sext i32 %112 to i64
  %114 = getelementptr inbounds [100 x i32], [100 x i32]* %111, i64 0, i64 %113
  %115 = load i32, i32* %114, align 4
  %116 = call i32 (i8*, ...) @printf(i8* getelementptr inbounds ([4 x i8], [4 x i8]* @.str.2, i64 0, i64 0), i32 %115)
  br label %117

117:                                              ; preds = %108
  %118 = load i32, i32* %6, align 4
  %119 = add nsw i32 %118, -1
  store i32 %119, i32* %6, align 4
  br label %98

120:                                              ; preds = %106
  %121 = load i32, i32* %8, align 4
  %122 = sub nsw i32 %121, 1
  store i32 %122, i32* %8, align 4
  %123 = load i32, i32* %9, align 4
  store i32 %123, i32* %6, align 4
  %124 = load i32, i32* %8, align 4
  store i32 %124, i32* %5, align 4
  br label %125

125:                                              ; preds = %144, %120
  %126 = load i32, i32* %5, align 4
  %127 = load i32, i32* %7, align 4
  %128 = icmp sge i32 %126, %127
  br i1 %128, label %129, label %133

129:                                              ; preds = %125
  %130 = load i32, i32* %9, align 4
  %131 = load i32, i32* %10, align 4
  %132 = icmp sle i32 %130, %131
  br label %133

133:                                              ; preds = %129, %125
  %134 = phi i1 [ false, %125 ], [ %132, %129 ]
  br i1 %134, label %135, label %147

135:                                              ; preds = %133
  %136 = load i32, i32* %5, align 4
  %137 = sext i32 %136 to i64
  %138 = getelementptr inbounds [100 x [100 x i32]], [100 x [100 x i32]]* %2, i64 0, i64 %137
  %139 = load i32, i32* %6, align 4
  %140 = sext i32 %139 to i64
  %141 = getelementptr inbounds [100 x i32], [100 x i32]* %138, i64 0, i64 %140
  %142 = load i32, i32* %141, align 4
  %143 = call i32 (i8*, ...) @printf(i8* getelementptr inbounds ([4 x i8], [4 x i8]* @.str.2, i64 0, i64 0), i32 %142)
  br label %144

144:                                              ; preds = %135
  %145 = load i32, i32* %5, align 4
  %146 = add nsw i32 %145, -1
  store i32 %146, i32* %5, align 4
  br label %125

147:                                              ; preds = %133
  %148 = load i32, i32* %9, align 4
  %149 = add nsw i32 %148, 1
  store i32 %149, i32* %9, align 4
  br label %150

150:                                              ; preds = %147
  %151 = load i32, i32* %7, align 4
  %152 = load i32, i32* %8, align 4
  %153 = icmp sle i32 %151, %152
  br i1 %153, label %158, label %154

154:                                              ; preds = %150
  %155 = load i32, i32* %9, align 4
  %156 = load i32, i32* %10, align 4
  %157 = icmp sle i32 %155, %156
  br label %158

158:                                              ; preds = %154, %150
  %159 = phi i1 [ true, %150 ], [ %157, %154 ]
  br i1 %159, label %41, label %160

160:                                              ; preds = %158
  ret i32 0
}

declare dso_local i32 @__isoc99_scanf(i8*, ...) #1

declare dso_local i32 @printf(i8*, ...) #1


!llvm.module.flags = !{!0}
!llvm.ident = !{!1}

!0 = !{i32 1, !"wchar_size", i32 4}
!1 = !{!"clang version 10.0.0-4ubuntu1 "}
